	.file	"simplesync.c"
	.text
.Ltext0:
	.section	.rodata.str1.8,"aMS",@progbits,1
	.align 8
.LC0:
	.string	"About to increase variable %d times\n"
	.section	.rodata.str1.1,"aMS",@progbits,1
.LC1:
	.string	"sync_add_and_fetch"
.LC2:
	.string	"Done increasing variable.\n"
	.text
	.p2align 4
	.globl	increase_fn
	.type	increase_fn, @function
increase_fn:
.LVL0:
.LFB51:
	.file 1 "simplesync.c"
	.loc 1 43 1 view -0
	.cfi_startproc
	.loc 1 43 1 is_stmt 0 view .LVU1
	endbr64
	subq	$24, %rsp
	.cfi_def_cfa_offset 32
.LBB34:
.LBB35:
	.file 2 "/usr/include/x86_64-linux-gnu/bits/stdio2.h"
	.loc 2 100 10 view .LVU2
	movl	$10000000, %ecx
	movl	$1, %esi
.LBE35:
.LBE34:
	.loc 1 43 1 view .LVU3
	movq	%fs:40, %rax
	movq	%rax, 8(%rsp)
	xorl	%eax, %eax
	.loc 1 44 2 is_stmt 1 view .LVU4
	.loc 1 45 2 view .LVU5
	.loc 1 45 16 is_stmt 0 view .LVU6
	movq	%rdi, (%rsp)
	.loc 1 47 2 is_stmt 1 view .LVU7
.LVL1:
.LBB38:
.LBI34:
	.loc 2 98 1 view .LVU8
.LBB36:
	.loc 2 100 3 view .LVU9
	.loc 2 100 10 is_stmt 0 view .LVU10
	movq	stderr(%rip), %rdi
.LVL2:
	.loc 2 100 10 view .LVU11
	leaq	.LC0(%rip), %rdx
	call	__fprintf_chk@PLT
.LVL3:
	.loc 2 100 10 view .LVU12
.LBE36:
.LBE38:
	.loc 1 48 2 is_stmt 1 view .LVU13
	.loc 1 48 14 view .LVU14
.LBB39:
.LBB37:
	.loc 2 100 10 is_stmt 0 view .LVU15
	movl	$10000000, %eax
.LVL4:
	.p2align 4,,10
	.p2align 3
.L3:
	.loc 2 100 10 view .LVU16
.LBE37:
.LBE39:
	.loc 1 49 3 is_stmt 1 view .LVU17
	.loc 1 52 4 view .LVU18
	lock addq	$1, (%rsp)
	.loc 1 53 4 view .LVU19
	.loc 1 53 6 is_stmt 0 view .LVU20
	cmpq	$0, (%rsp)
	je	.L8
	.loc 1 48 21 is_stmt 1 discriminator 2 view .LVU21
.LVL5:
	.loc 1 48 14 discriminator 2 view .LVU22
	.loc 1 48 2 is_stmt 0 discriminator 2 view .LVU23
	subl	$1, %eax
.LVL6:
	.loc 1 48 2 discriminator 2 view .LVU24
	jne	.L3
	.loc 1 77 2 is_stmt 1 view .LVU25
.LVL7:
.LBB40:
.LBI40:
	.loc 2 98 1 view .LVU26
.LBB41:
	.loc 2 100 3 view .LVU27
	.loc 2 100 10 is_stmt 0 view .LVU28
	movq	stderr(%rip), %rcx
	movl	$26, %edx
	movl	$1, %esi
	leaq	.LC2(%rip), %rdi
	call	fwrite@PLT
.LVL8:
	.loc 2 100 10 view .LVU29
.LBE41:
.LBE40:
	.loc 1 79 2 is_stmt 1 view .LVU30
	.loc 1 80 1 is_stmt 0 view .LVU31
	movq	8(%rsp), %rax
	xorq	%fs:40, %rax
	jne	.L9
	xorl	%eax, %eax
	addq	$24, %rsp
	.cfi_remember_state
	.cfi_def_cfa_offset 8
	ret
.LVL9:
.L8:
	.cfi_restore_state
.LBB42:
.LBI42:
	.loc 1 42 7 is_stmt 1 view .LVU32
.LBB43:
	.loc 1 54 5 view .LVU33
	leaq	.LC1(%rip), %rdi
	call	perror@PLT
.LVL10:
	.loc 1 55 5 view .LVU34
	movl	$1, %edi
	call	exit@PLT
.LVL11:
.L9:
	.loc 1 55 5 is_stmt 0 view .LVU35
.LBE43:
.LBE42:
	.loc 1 80 1 view .LVU36
	call	__stack_chk_fail@PLT
.LVL12:
	.cfi_endproc
.LFE51:
	.size	increase_fn, .-increase_fn
	.section	.rodata.str1.1
.LC3:
	.string	"\n mutex init has failed"
	.section	.rodata.str1.8
	.align 8
.LC4:
	.string	"About to decrease variable %d times\n"
	.section	.rodata.str1.1
.LC5:
	.string	"sync_sub_and_fetch"
.LC6:
	.string	"Done decreasing variable.\n"
	.text
	.p2align 4
	.globl	decrease_fn
	.type	decrease_fn, @function
decrease_fn:
.LVL13:
.LFB52:
	.loc 1 83 1 is_stmt 1 view -0
	.cfi_startproc
	.loc 1 83 1 is_stmt 0 view .LVU38
	endbr64
	subq	$24, %rsp
	.cfi_def_cfa_offset 32
	.loc 1 87 6 view .LVU39
	xorl	%esi, %esi
	.loc 1 83 1 view .LVU40
	movq	%fs:40, %rax
	movq	%rax, 8(%rsp)
	xorl	%eax, %eax
	.loc 1 84 2 is_stmt 1 view .LVU41
	.loc 1 85 2 view .LVU42
	.loc 1 85 16 is_stmt 0 view .LVU43
	movq	%rdi, (%rsp)
	.loc 1 87 2 is_stmt 1 view .LVU44
	.loc 1 87 6 is_stmt 0 view .LVU45
	leaq	mutex(%rip), %rdi
.LVL14:
	.loc 1 87 6 view .LVU46
	call	pthread_mutex_init@PLT
.LVL15:
	.loc 1 87 5 view .LVU47
	testl	%eax, %eax
	jne	.L17
	.loc 1 92 2 is_stmt 1 view .LVU48
.LVL16:
.LBB56:
.LBI56:
	.loc 2 98 1 view .LVU49
.LBB57:
	.loc 2 100 3 view .LVU50
	.loc 2 100 10 is_stmt 0 view .LVU51
	movq	stderr(%rip), %rdi
	movl	$10000000, %ecx
	leaq	.LC4(%rip), %rdx
	xorl	%eax, %eax
	movl	$1, %esi
	call	__fprintf_chk@PLT
.LVL17:
	.loc 2 100 10 view .LVU52
.LBE57:
.LBE56:
	.loc 1 93 2 is_stmt 1 view .LVU53
	.loc 1 93 14 view .LVU54
.LBB59:
.LBB58:
	.loc 2 100 10 is_stmt 0 view .LVU55
	movl	$10000000, %eax
.LVL18:
	.p2align 4,,10
	.p2align 3
.L13:
	.loc 2 100 10 view .LVU56
.LBE58:
.LBE59:
	.loc 1 94 3 is_stmt 1 view .LVU57
	.loc 1 97 4 view .LVU58
	lock addq	$1, (%rsp)
	.loc 1 98 4 view .LVU59
	.loc 1 98 6 is_stmt 0 view .LVU60
	cmpq	$0, (%rsp)
	je	.L18
	.loc 1 93 21 is_stmt 1 discriminator 2 view .LVU61
.LVL19:
	.loc 1 93 14 discriminator 2 view .LVU62
	.loc 1 93 2 is_stmt 0 discriminator 2 view .LVU63
	subl	$1, %eax
.LVL20:
	.loc 1 93 2 discriminator 2 view .LVU64
	jne	.L13
	.loc 1 122 2 is_stmt 1 view .LVU65
.LVL21:
.LBB60:
.LBI60:
	.loc 2 98 1 view .LVU66
.LBB61:
	.loc 2 100 3 view .LVU67
	.loc 2 100 10 is_stmt 0 view .LVU68
	movq	stderr(%rip), %rcx
	movl	$26, %edx
	movl	$1, %esi
	leaq	.LC6(%rip), %rdi
	call	fwrite@PLT
.LVL22:
	.loc 2 100 10 view .LVU69
.LBE61:
.LBE60:
	.loc 1 124 2 is_stmt 1 view .LVU70
	.loc 1 125 1 is_stmt 0 view .LVU71
	movq	8(%rsp), %rax
	xorq	%fs:40, %rax
	jne	.L19
	xorl	%eax, %eax
	addq	$24, %rsp
	.cfi_remember_state
	.cfi_def_cfa_offset 8
	ret
.LVL23:
.L18:
	.cfi_restore_state
	.loc 1 99 5 is_stmt 1 view .LVU72
	leaq	.LC5(%rip), %rdi
	call	perror@PLT
.LVL24:
	.loc 1 100 5 view .LVU73
	movl	$1, %edi
	call	exit@PLT
.LVL25:
.L17:
.LBB62:
.LBI62:
	.loc 1 82 7 view .LVU74
.LBB63:
	.loc 1 88 9 view .LVU75
.LBB64:
.LBI64:
	.loc 2 105 1 view .LVU76
.LBB65:
	.loc 2 107 3 view .LVU77
	.loc 2 107 10 is_stmt 0 view .LVU78
	leaq	.LC3(%rip), %rdi
	call	puts@PLT
.LVL26:
	.loc 2 107 10 view .LVU79
.LBE65:
.LBE64:
	.loc 1 89 9 is_stmt 1 view .LVU80
	movl	$1, %edi
	call	exit@PLT
.LVL27:
.L19:
	.loc 1 89 9 is_stmt 0 view .LVU81
.LBE63:
.LBE62:
	.loc 1 125 1 view .LVU82
	call	__stack_chk_fail@PLT
.LVL28:
	.cfi_endproc
.LFE52:
	.size	decrease_fn, .-decrease_fn
	.section	.rodata.str1.1
.LC7:
	.string	""
.LC8:
	.string	"NOT "
.LC9:
	.string	"pthread_create"
.LC10:
	.string	"pthread_join"
.LC11:
	.string	"%sOK, val = %d.\n"
	.section	.text.startup,"ax",@progbits
	.p2align 4
	.globl	main
	.type	main, @function
main:
.LVL29:
.LFB53:
	.loc 1 129 1 is_stmt 1 view -0
	.cfi_startproc
	.loc 1 129 1 is_stmt 0 view .LVU84
	endbr64
	pushq	%r12
	.cfi_def_cfa_offset 16
	.cfi_offset 12, -16
	.loc 1 141 8 view .LVU85
	xorl	%esi, %esi
.LVL30:
	.loc 1 141 8 view .LVU86
	leaq	increase_fn(%rip), %rdx
	.loc 1 129 1 view .LVU87
	pushq	%rbx
	.cfi_def_cfa_offset 24
	.cfi_offset 3, -24
	subq	$40, %rsp
	.cfi_def_cfa_offset 64
	.loc 1 129 1 view .LVU88
	movq	%fs:40, %rax
	movq	%rax, 24(%rsp)
	xorl	%eax, %eax
	.loc 1 130 2 is_stmt 1 view .LVU89
	.loc 1 131 2 view .LVU90
	.loc 1 136 2 view .LVU91
	.loc 1 141 8 is_stmt 0 view .LVU92
	leaq	4(%rsp), %r12
	leaq	8(%rsp), %rdi
.LVL31:
	.loc 1 136 6 view .LVU93
	movl	$0, 4(%rsp)
	.loc 1 141 2 is_stmt 1 view .LVU94
	.loc 1 141 8 is_stmt 0 view .LVU95
	movq	%r12, %rcx
	call	pthread_create@PLT
.LVL32:
	.loc 1 142 2 is_stmt 1 view .LVU96
	.loc 1 142 5 is_stmt 0 view .LVU97
	testl	%eax, %eax
	jne	.L36
	.loc 1 146 2 is_stmt 1 view .LVU98
	.loc 1 146 8 is_stmt 0 view .LVU99
	leaq	16(%rsp), %rdi
	movq	%r12, %rcx
	leaq	decrease_fn(%rip), %rdx
	xorl	%esi, %esi
	call	pthread_create@PLT
.LVL33:
	.loc 1 146 8 view .LVU100
	movl	%eax, %ebx
.LVL34:
	.loc 1 147 2 is_stmt 1 view .LVU101
	.loc 1 147 5 is_stmt 0 view .LVU102
	testl	%eax, %eax
	jne	.L35
	.loc 1 155 2 is_stmt 1 view .LVU103
	.loc 1 155 8 is_stmt 0 view .LVU104
	movq	8(%rsp), %rdi
	xorl	%esi, %esi
	call	pthread_join@PLT
.LVL35:
	.loc 1 155 8 view .LVU105
	movl	%eax, %ebx
.LVL36:
	.loc 1 156 2 is_stmt 1 view .LVU106
	.loc 1 156 5 is_stmt 0 view .LVU107
	testl	%eax, %eax
	jne	.L37
.LVL37:
.L23:
	.loc 1 157 3 is_stmt 1 discriminator 1 view .LVU108
	.loc 1 158 2 discriminator 1 view .LVU109
	.loc 1 158 8 is_stmt 0 discriminator 1 view .LVU110
	movq	16(%rsp), %rdi
	xorl	%esi, %esi
	call	pthread_join@PLT
.LVL38:
	movl	%eax, %ebx
.LVL39:
	.loc 1 159 2 is_stmt 1 discriminator 1 view .LVU111
	.loc 1 159 5 is_stmt 0 discriminator 1 view .LVU112
	testl	%eax, %eax
	jne	.L38
.LVL40:
.L24:
	.loc 1 160 3 is_stmt 1 discriminator 1 view .LVU113
	.loc 1 165 2 discriminator 1 view .LVU114
	.loc 1 165 12 is_stmt 0 discriminator 1 view .LVU115
	movl	4(%rsp), %ecx
	xorl	%r12d, %r12d
	.loc 1 167 2 discriminator 1 view .LVU116
	leaq	.LC8(%rip), %rax
	leaq	.LC7(%rip), %rdx
.LBB66:
.LBB67:
	.loc 2 107 10 discriminator 1 view .LVU117
	leaq	.LC11(%rip), %rsi
	movl	$1, %edi
.LBE67:
.LBE66:
	.loc 1 165 12 discriminator 1 view .LVU118
	testl	%ecx, %ecx
	.loc 1 167 2 discriminator 1 view .LVU119
	cmovne	%rax, %rdx
	.loc 1 165 12 discriminator 1 view .LVU120
	sete	%r12b
.LVL41:
	.loc 1 167 2 is_stmt 1 discriminator 1 view .LVU121
.LBB69:
.LBI66:
	.loc 2 105 1 discriminator 1 view .LVU122
.LBB68:
	.loc 2 107 3 discriminator 1 view .LVU123
	.loc 2 107 10 is_stmt 0 discriminator 1 view .LVU124
	xorl	%eax, %eax
	call	__printf_chk@PLT
.LVL42:
	.loc 2 107 10 discriminator 1 view .LVU125
.LBE68:
.LBE69:
	.loc 1 169 2 is_stmt 1 discriminator 1 view .LVU126
	.loc 1 170 1 is_stmt 0 discriminator 1 view .LVU127
	movq	24(%rsp), %rax
	xorq	%fs:40, %rax
	jne	.L39
	.loc 1 170 1 view .LVU128
	addq	$40, %rsp
	.cfi_remember_state
	.cfi_def_cfa_offset 24
	movl	%r12d, %eax
.LVL43:
	.loc 1 170 1 view .LVU129
	popq	%rbx
	.cfi_def_cfa_offset 16
.LVL44:
	.loc 1 170 1 view .LVU130
	popq	%r12
	.cfi_def_cfa_offset 8
	ret
.LVL45:
.L37:
	.cfi_restore_state
	.loc 1 157 3 is_stmt 1 view .LVU131
	.loc 1 157 3 view .LVU132
	call	__errno_location@PLT
.LVL46:
	.loc 1 157 3 is_stmt 0 view .LVU133
	leaq	.LC10(%rip), %rdi
	movl	%ebx, (%rax)
	.loc 1 157 3 is_stmt 1 view .LVU134
	call	perror@PLT
.LVL47:
	jmp	.L23
.LVL48:
.L38:
	.loc 1 160 3 view .LVU135
	.loc 1 160 3 view .LVU136
	call	__errno_location@PLT
.LVL49:
	.loc 1 160 3 is_stmt 0 view .LVU137
	leaq	.LC10(%rip), %rdi
	movl	%ebx, (%rax)
	.loc 1 160 3 is_stmt 1 view .LVU138
	call	perror@PLT
.LVL50:
	jmp	.L24
.LVL51:
.L36:
	.loc 1 160 3 is_stmt 0 view .LVU139
	movl	%eax, %ebx
	.loc 1 143 3 is_stmt 1 view .LVU140
	.loc 1 143 3 view .LVU141
.LVL52:
.L35:
	.loc 1 148 3 view .LVU142
	.loc 1 148 3 view .LVU143
	call	__errno_location@PLT
.LVL53:
	leaq	.LC9(%rip), %rdi
	movl	%ebx, (%rax)
	.loc 1 148 3 view .LVU144
	call	perror@PLT
.LVL54:
	.loc 1 148 3 view .LVU145
	.loc 1 149 3 view .LVU146
	movl	$1, %edi
	call	exit@PLT
.LVL55:
.L39:
	.loc 1 170 1 is_stmt 0 view .LVU147
	call	__stack_chk_fail@PLT
.LVL56:
	.cfi_endproc
.LFE53:
	.size	main, .-main
	.comm	mutex,40,32
	.text
.Letext0:
	.file 3 "/usr/lib/gcc/x86_64-linux-gnu/9/include/stddef.h"
	.file 4 "/usr/include/x86_64-linux-gnu/bits/types.h"
	.file 5 "/usr/include/x86_64-linux-gnu/bits/types/struct_FILE.h"
	.file 6 "/usr/include/x86_64-linux-gnu/bits/types/FILE.h"
	.file 7 "/usr/include/stdio.h"
	.file 8 "/usr/include/x86_64-linux-gnu/bits/sys_errlist.h"
	.file 9 "/usr/include/x86_64-linux-gnu/bits/thread-shared-types.h"
	.file 10 "/usr/include/x86_64-linux-gnu/bits/struct_mutex.h"
	.file 11 "/usr/include/x86_64-linux-gnu/bits/pthreadtypes.h"
	.file 12 "/usr/include/unistd.h"
	.file 13 "/usr/include/x86_64-linux-gnu/bits/getopt_core.h"
	.file 14 "/usr/include/time.h"
	.file 15 "/usr/include/pthread.h"
	.file 16 "/usr/include/errno.h"
	.file 17 "/usr/include/stdlib.h"
	.file 18 "<built-in>"
	.section	.note.GNU-stack,"",@progbits
	.section	.note.gnu.property,"a"
	.align 8
	.long	 1f - 0f
	.long	 4f - 1f
	.long	 5
0:
	.string	 "GNU"
1:
	.align 8
	.long	 0xc0000002
	.long	 3f - 2f
2:
	.long	 0x3
3:
	.align 8
4:
