	.file	"simplesync.c"
	.text
.Ltext0:
	.section	.rodata.str1.8,"aMS",@progbits,1
	.align 8
.LC0:
	.string	"About to increase variable %d times\n"
	.section	.rodata.str1.1,"aMS",@progbits,1
.LC1:
	.string	"pthread_mutex_lock"
.LC2:
	.string	"pthread_mutex_unlock"
.LC3:
	.string	"Done increasing variable.\n"
	.text
	.p2align 4
	.globl	increase_fn
	.type	increase_fn, @function
increase_fn:
.LVL0:
.LFB51:
	.file 1 "simplesync.c"
	.loc 1 42 1 view -0
	.cfi_startproc
	.loc 1 42 1 is_stmt 0 view .LVU1
	endbr64
	.loc 1 43 2 is_stmt 1 view .LVU2
	.loc 1 44 2 view .LVU3
	.loc 1 42 1 is_stmt 0 view .LVU4
	pushq	%r13
	.cfi_def_cfa_offset 16
	.cfi_offset 13, -16
.LBB12:
.LBB13:
	.file 2 "/usr/include/x86_64-linux-gnu/bits/stdio2.h"
	.loc 2 100 10 view .LVU5
	movl	$10000000, %ecx
	leaq	.LC0(%rip), %rdx
	xorl	%eax, %eax
.LBE13:
.LBE12:
	.loc 1 42 1 view .LVU6
	pushq	%r12
	.cfi_def_cfa_offset 24
	.cfi_offset 12, -24
	movq	%rdi, %r12
.LVL1:
	.loc 1 46 2 is_stmt 1 view .LVU7
.LBB17:
.LBI12:
	.loc 2 98 1 view .LVU8
.LBB14:
	.loc 2 100 3 view .LVU9
	.loc 2 100 10 is_stmt 0 view .LVU10
	movl	$1, %esi
.LBE14:
.LBE17:
	.loc 1 55 10 view .LVU11
	leaq	mutex(%rip), %r13
	.loc 1 42 1 view .LVU12
	pushq	%rbp
	.cfi_def_cfa_offset 32
	.cfi_offset 6, -32
.LBB18:
.LBB15:
	.loc 2 100 10 view .LVU13
	movl	$10000000, %ebp
.LBE15:
.LBE18:
	.loc 1 42 1 view .LVU14
	pushq	%rbx
	.cfi_def_cfa_offset 40
	.cfi_offset 3, -40
	subq	$8, %rsp
	.cfi_def_cfa_offset 48
.LBB19:
.LBB16:
	.loc 2 100 10 view .LVU15
	movq	stderr(%rip), %rdi
.LVL2:
	.loc 2 100 10 view .LVU16
	call	__fprintf_chk@PLT
.LVL3:
	.loc 2 100 10 view .LVU17
.LBE16:
.LBE19:
	.loc 1 47 2 is_stmt 1 view .LVU18
	.loc 1 47 14 view .LVU19
	.p2align 4,,10
	.p2align 3
.L4:
	.loc 1 48 3 view .LVU20
	.loc 1 55 4 view .LVU21
	.loc 1 55 10 is_stmt 0 view .LVU22
	movq	%r13, %rdi
	call	pthread_mutex_lock@PLT
.LVL4:
	movl	%eax, %ebx
.LVL5:
	.loc 1 56 4 is_stmt 1 view .LVU23
	.loc 1 56 7 is_stmt 0 view .LVU24
	testl	%eax, %eax
	jne	.L8
	.loc 1 61 4 is_stmt 1 view .LVU25
	.loc 1 61 7 is_stmt 0 view .LVU26
	movl	(%r12), %eax
.LVL6:
	.loc 1 63 10 view .LVU27
	movq	%r13, %rdi
	.loc 1 61 4 view .LVU28
	addl	$1, %eax
	movl	%eax, (%r12)
	.loc 1 63 4 is_stmt 1 view .LVU29
	.loc 1 63 10 is_stmt 0 view .LVU30
	call	pthread_mutex_unlock@PLT
.LVL7:
	movl	%eax, %ebx
.LVL8:
	.loc 1 64 4 is_stmt 1 view .LVU31
	.loc 1 64 7 is_stmt 0 view .LVU32
	testl	%eax, %eax
	jne	.L9
	.loc 1 47 21 is_stmt 1 discriminator 2 view .LVU33
.LVL9:
	.loc 1 47 14 discriminator 2 view .LVU34
	.loc 1 47 2 is_stmt 0 discriminator 2 view .LVU35
	subl	$1, %ebp
.LVL10:
	.loc 1 47 2 discriminator 2 view .LVU36
	jne	.L4
	.loc 1 70 2 is_stmt 1 view .LVU37
.LVL11:
.LBB20:
.LBI20:
	.loc 2 98 1 view .LVU38
.LBB21:
	.loc 2 100 3 view .LVU39
	.loc 2 100 10 is_stmt 0 view .LVU40
	movq	stderr(%rip), %rcx
	movl	$26, %edx
	movl	$1, %esi
	leaq	.LC3(%rip), %rdi
	call	fwrite@PLT
.LVL12:
	.loc 2 100 10 view .LVU41
.LBE21:
.LBE20:
	.loc 1 72 2 is_stmt 1 view .LVU42
	.loc 1 73 1 is_stmt 0 view .LVU43
	addq	$8, %rsp
	.cfi_remember_state
	.cfi_def_cfa_offset 40
	xorl	%eax, %eax
	popq	%rbx
	.cfi_def_cfa_offset 32
.LVL13:
	.loc 1 73 1 view .LVU44
	popq	%rbp
	.cfi_def_cfa_offset 24
.LVL14:
	.loc 1 73 1 view .LVU45
	popq	%r12
	.cfi_def_cfa_offset 16
.LVL15:
	.loc 1 73 1 view .LVU46
	popq	%r13
	.cfi_def_cfa_offset 8
	ret
.LVL16:
.L8:
	.cfi_restore_state
	.loc 1 57 5 is_stmt 1 view .LVU47
	.loc 1 57 5 view .LVU48
	call	__errno_location@PLT
.LVL17:
	.loc 1 57 5 is_stmt 0 view .LVU49
	leaq	.LC1(%rip), %rdi
	movl	%ebx, (%rax)
	.loc 1 57 5 is_stmt 1 view .LVU50
	call	perror@PLT
.LVL18:
	.loc 1 57 5 view .LVU51
	.loc 1 58 5 view .LVU52
	movl	$1, %edi
	call	exit@PLT
.LVL19:
.L9:
	.loc 1 65 5 view .LVU53
	.loc 1 65 5 view .LVU54
	call	__errno_location@PLT
.LVL20:
	.loc 1 65 5 is_stmt 0 view .LVU55
	leaq	.LC2(%rip), %rdi
	movl	%ebx, (%rax)
	.loc 1 65 5 is_stmt 1 view .LVU56
	call	perror@PLT
.LVL21:
	.loc 1 65 5 view .LVU57
	.loc 1 66 5 view .LVU58
	movl	$1, %edi
	call	exit@PLT
.LVL22:
	.cfi_endproc
.LFE51:
	.size	increase_fn, .-increase_fn
	.section	.rodata.str1.8
	.align 8
.LC4:
	.string	"About to decrease variable %d times\n"
	.section	.rodata.str1.1
.LC5:
	.string	"Done decreasing variable.\n"
	.text
	.p2align 4
	.globl	decrease_fn
	.type	decrease_fn, @function
decrease_fn:
.LVL23:
.LFB52:
	.loc 1 76 1 view -0
	.cfi_startproc
	.loc 1 76 1 is_stmt 0 view .LVU60
	endbr64
	.loc 1 77 2 is_stmt 1 view .LVU61
	.loc 1 78 2 view .LVU62
	.loc 1 76 1 is_stmt 0 view .LVU63
	pushq	%r13
	.cfi_def_cfa_offset 16
	.cfi_offset 13, -16
.LBB22:
.LBB23:
	.loc 2 100 10 view .LVU64
	movl	$10000000, %ecx
	leaq	.LC4(%rip), %rdx
	xorl	%eax, %eax
.LBE23:
.LBE22:
	.loc 1 76 1 view .LVU65
	pushq	%r12
	.cfi_def_cfa_offset 24
	.cfi_offset 12, -24
	movq	%rdi, %r12
.LVL24:
	.loc 1 80 2 is_stmt 1 view .LVU66
.LBB27:
.LBI22:
	.loc 2 98 1 view .LVU67
.LBB24:
	.loc 2 100 3 view .LVU68
	.loc 2 100 10 is_stmt 0 view .LVU69
	movl	$1, %esi
.LBE24:
.LBE27:
	.loc 1 89 10 view .LVU70
	leaq	mutex(%rip), %r13
	.loc 1 76 1 view .LVU71
	pushq	%rbp
	.cfi_def_cfa_offset 32
	.cfi_offset 6, -32
.LBB28:
.LBB25:
	.loc 2 100 10 view .LVU72
	movl	$10000000, %ebp
.LBE25:
.LBE28:
	.loc 1 76 1 view .LVU73
	pushq	%rbx
	.cfi_def_cfa_offset 40
	.cfi_offset 3, -40
	subq	$8, %rsp
	.cfi_def_cfa_offset 48
.LBB29:
.LBB26:
	.loc 2 100 10 view .LVU74
	movq	stderr(%rip), %rdi
.LVL25:
	.loc 2 100 10 view .LVU75
	call	__fprintf_chk@PLT
.LVL26:
	.loc 2 100 10 view .LVU76
.LBE26:
.LBE29:
	.loc 1 81 2 is_stmt 1 view .LVU77
	.loc 1 81 14 view .LVU78
	.p2align 4,,10
	.p2align 3
.L13:
	.loc 1 82 3 view .LVU79
	.loc 1 89 4 view .LVU80
	.loc 1 89 10 is_stmt 0 view .LVU81
	movq	%r13, %rdi
	call	pthread_mutex_lock@PLT
.LVL27:
	movl	%eax, %ebx
.LVL28:
	.loc 1 90 4 is_stmt 1 view .LVU82
	.loc 1 90 7 is_stmt 0 view .LVU83
	testl	%eax, %eax
	jne	.L16
	.loc 1 95 4 is_stmt 1 view .LVU84
	.loc 1 95 7 is_stmt 0 view .LVU85
	movl	(%r12), %eax
.LVL29:
	.loc 1 97 10 view .LVU86
	movq	%r13, %rdi
	.loc 1 95 4 view .LVU87
	subl	$1, %eax
	movl	%eax, (%r12)
	.loc 1 97 4 is_stmt 1 view .LVU88
	.loc 1 97 10 is_stmt 0 view .LVU89
	call	pthread_mutex_unlock@PLT
.LVL30:
	movl	%eax, %ebx
.LVL31:
	.loc 1 98 4 is_stmt 1 view .LVU90
	.loc 1 98 7 is_stmt 0 view .LVU91
	testl	%eax, %eax
	jne	.L17
	.loc 1 81 21 is_stmt 1 discriminator 2 view .LVU92
.LVL32:
	.loc 1 81 14 discriminator 2 view .LVU93
	.loc 1 81 2 is_stmt 0 discriminator 2 view .LVU94
	subl	$1, %ebp
.LVL33:
	.loc 1 81 2 discriminator 2 view .LVU95
	jne	.L13
	.loc 1 104 2 is_stmt 1 view .LVU96
.LVL34:
.LBB30:
.LBI30:
	.loc 2 98 1 view .LVU97
.LBB31:
	.loc 2 100 3 view .LVU98
	.loc 2 100 10 is_stmt 0 view .LVU99
	movq	stderr(%rip), %rcx
	movl	$26, %edx
	movl	$1, %esi
	leaq	.LC5(%rip), %rdi
	call	fwrite@PLT
.LVL35:
	.loc 2 100 10 view .LVU100
.LBE31:
.LBE30:
	.loc 1 106 2 is_stmt 1 view .LVU101
	.loc 1 107 1 is_stmt 0 view .LVU102
	addq	$8, %rsp
	.cfi_remember_state
	.cfi_def_cfa_offset 40
	xorl	%eax, %eax
	popq	%rbx
	.cfi_def_cfa_offset 32
.LVL36:
	.loc 1 107 1 view .LVU103
	popq	%rbp
	.cfi_def_cfa_offset 24
.LVL37:
	.loc 1 107 1 view .LVU104
	popq	%r12
	.cfi_def_cfa_offset 16
.LVL38:
	.loc 1 107 1 view .LVU105
	popq	%r13
	.cfi_def_cfa_offset 8
	ret
.LVL39:
.L16:
	.cfi_restore_state
	.loc 1 91 5 is_stmt 1 view .LVU106
	.loc 1 91 5 view .LVU107
	call	__errno_location@PLT
.LVL40:
	.loc 1 91 5 is_stmt 0 view .LVU108
	leaq	.LC1(%rip), %rdi
	movl	%ebx, (%rax)
	.loc 1 91 5 is_stmt 1 view .LVU109
	call	perror@PLT
.LVL41:
	.loc 1 91 5 view .LVU110
	.loc 1 92 5 view .LVU111
	movl	$1, %edi
	call	exit@PLT
.LVL42:
.L17:
	.loc 1 99 5 view .LVU112
	.loc 1 99 5 view .LVU113
	call	__errno_location@PLT
.LVL43:
	.loc 1 99 5 is_stmt 0 view .LVU114
	leaq	.LC2(%rip), %rdi
	movl	%ebx, (%rax)
	.loc 1 99 5 is_stmt 1 view .LVU115
	call	perror@PLT
.LVL44:
	.loc 1 99 5 view .LVU116
	.loc 1 100 5 view .LVU117
	movl	$1, %edi
	call	exit@PLT
.LVL45:
	.cfi_endproc
.LFE52:
	.size	decrease_fn, .-decrease_fn
	.section	.rodata.str1.1
.LC6:
	.string	""
.LC7:
	.string	"NOT "
.LC8:
	.string	"pthread_create"
.LC9:
	.string	"pthread_join"
.LC10:
	.string	"%sOK, val = %d.\n"
	.section	.text.startup,"ax",@progbits
	.p2align 4
	.globl	main
	.type	main, @function
main:
.LVL46:
.LFB53:
	.loc 1 111 1 view -0
	.cfi_startproc
	.loc 1 111 1 is_stmt 0 view .LVU119
	endbr64
	pushq	%r12
	.cfi_def_cfa_offset 16
	.cfi_offset 12, -16
	.loc 1 123 8 view .LVU120
	xorl	%esi, %esi
.LVL47:
	.loc 1 123 8 view .LVU121
	leaq	increase_fn(%rip), %rdx
	.loc 1 111 1 view .LVU122
	pushq	%rbx
	.cfi_def_cfa_offset 24
	.cfi_offset 3, -24
	subq	$40, %rsp
	.cfi_def_cfa_offset 64
	.loc 1 111 1 view .LVU123
	movq	%fs:40, %rax
	movq	%rax, 24(%rsp)
	xorl	%eax, %eax
	.loc 1 112 2 is_stmt 1 view .LVU124
	.loc 1 113 2 view .LVU125
	.loc 1 118 2 view .LVU126
	.loc 1 123 8 is_stmt 0 view .LVU127
	leaq	4(%rsp), %r12
	leaq	8(%rsp), %rdi
.LVL48:
	.loc 1 118 6 view .LVU128
	movl	$0, 4(%rsp)
	.loc 1 123 2 is_stmt 1 view .LVU129
	.loc 1 123 8 is_stmt 0 view .LVU130
	movq	%r12, %rcx
	call	pthread_create@PLT
.LVL49:
	.loc 1 124 2 is_stmt 1 view .LVU131
	.loc 1 124 5 is_stmt 0 view .LVU132
	testl	%eax, %eax
	jne	.L34
	.loc 1 128 2 is_stmt 1 view .LVU133
	.loc 1 128 8 is_stmt 0 view .LVU134
	leaq	16(%rsp), %rdi
	movq	%r12, %rcx
	leaq	decrease_fn(%rip), %rdx
	xorl	%esi, %esi
	call	pthread_create@PLT
.LVL50:
	.loc 1 128 8 view .LVU135
	movl	%eax, %ebx
.LVL51:
	.loc 1 129 2 is_stmt 1 view .LVU136
	.loc 1 129 5 is_stmt 0 view .LVU137
	testl	%eax, %eax
	jne	.L33
	.loc 1 137 2 is_stmt 1 view .LVU138
	.loc 1 137 8 is_stmt 0 view .LVU139
	movq	8(%rsp), %rdi
	xorl	%esi, %esi
	call	pthread_join@PLT
.LVL52:
	.loc 1 137 8 view .LVU140
	movl	%eax, %ebx
.LVL53:
	.loc 1 138 2 is_stmt 1 view .LVU141
	.loc 1 138 5 is_stmt 0 view .LVU142
	testl	%eax, %eax
	jne	.L35
.LVL54:
.L21:
	.loc 1 139 3 is_stmt 1 discriminator 1 view .LVU143
	.loc 1 140 2 discriminator 1 view .LVU144
	.loc 1 140 8 is_stmt 0 discriminator 1 view .LVU145
	movq	16(%rsp), %rdi
	xorl	%esi, %esi
	call	pthread_join@PLT
.LVL55:
	movl	%eax, %ebx
.LVL56:
	.loc 1 141 2 is_stmt 1 discriminator 1 view .LVU146
	.loc 1 141 5 is_stmt 0 discriminator 1 view .LVU147
	testl	%eax, %eax
	jne	.L36
.LVL57:
.L22:
	.loc 1 142 3 is_stmt 1 discriminator 1 view .LVU148
	.loc 1 147 2 discriminator 1 view .LVU149
	.loc 1 147 12 is_stmt 0 discriminator 1 view .LVU150
	movl	4(%rsp), %ecx
	xorl	%r12d, %r12d
	.loc 1 149 2 discriminator 1 view .LVU151
	leaq	.LC7(%rip), %rax
	leaq	.LC6(%rip), %rdx
.LBB32:
.LBB33:
	.loc 2 107 10 discriminator 1 view .LVU152
	leaq	.LC10(%rip), %rsi
	movl	$1, %edi
.LBE33:
.LBE32:
	.loc 1 147 12 discriminator 1 view .LVU153
	testl	%ecx, %ecx
	.loc 1 149 2 discriminator 1 view .LVU154
	cmovne	%rax, %rdx
	.loc 1 147 12 discriminator 1 view .LVU155
	sete	%r12b
.LVL58:
	.loc 1 149 2 is_stmt 1 discriminator 1 view .LVU156
.LBB35:
.LBI32:
	.loc 2 105 1 discriminator 1 view .LVU157
.LBB34:
	.loc 2 107 3 discriminator 1 view .LVU158
	.loc 2 107 10 is_stmt 0 discriminator 1 view .LVU159
	xorl	%eax, %eax
	call	__printf_chk@PLT
.LVL59:
	.loc 2 107 10 discriminator 1 view .LVU160
.LBE34:
.LBE35:
	.loc 1 151 2 is_stmt 1 discriminator 1 view .LVU161
	.loc 1 152 1 is_stmt 0 discriminator 1 view .LVU162
	movq	24(%rsp), %rax
	xorq	%fs:40, %rax
	jne	.L37
	.loc 1 152 1 view .LVU163
	addq	$40, %rsp
	.cfi_remember_state
	.cfi_def_cfa_offset 24
	movl	%r12d, %eax
.LVL60:
	.loc 1 152 1 view .LVU164
	popq	%rbx
	.cfi_def_cfa_offset 16
.LVL61:
	.loc 1 152 1 view .LVU165
	popq	%r12
	.cfi_def_cfa_offset 8
	ret
.LVL62:
.L35:
	.cfi_restore_state
	.loc 1 139 3 is_stmt 1 view .LVU166
	.loc 1 139 3 view .LVU167
	call	__errno_location@PLT
.LVL63:
	.loc 1 139 3 is_stmt 0 view .LVU168
	leaq	.LC9(%rip), %rdi
	movl	%ebx, (%rax)
	.loc 1 139 3 is_stmt 1 view .LVU169
	call	perror@PLT
.LVL64:
	jmp	.L21
.LVL65:
.L36:
	.loc 1 142 3 view .LVU170
	.loc 1 142 3 view .LVU171
	call	__errno_location@PLT
.LVL66:
	.loc 1 142 3 is_stmt 0 view .LVU172
	leaq	.LC9(%rip), %rdi
	movl	%ebx, (%rax)
	.loc 1 142 3 is_stmt 1 view .LVU173
	call	perror@PLT
.LVL67:
	jmp	.L22
.LVL68:
.L34:
	.loc 1 142 3 is_stmt 0 view .LVU174
	movl	%eax, %ebx
	.loc 1 125 3 is_stmt 1 view .LVU175
	.loc 1 125 3 view .LVU176
.LVL69:
.L33:
	.loc 1 130 3 view .LVU177
	.loc 1 130 3 view .LVU178
	call	__errno_location@PLT
.LVL70:
	leaq	.LC8(%rip), %rdi
	movl	%ebx, (%rax)
	.loc 1 130 3 view .LVU179
	call	perror@PLT
.LVL71:
	.loc 1 130 3 view .LVU180
	.loc 1 131 3 view .LVU181
	movl	$1, %edi
	call	exit@PLT
.LVL72:
.L37:
	.loc 1 152 1 is_stmt 0 view .LVU182
	call	__stack_chk_fail@PLT
.LVL73:
	.cfi_endproc
.LFE53:
	.size	main, .-main
	.globl	mutex
	.bss
	.align 32
	.type	mutex, @object
	.size	mutex, 40
mutex:
	.zero	40
	.text
.Letext0:
	.file 3 "/usr/lib/gcc/x86_64-linux-gnu/9/include/stddef.h"
	.file 4 "/usr/include/x86_64-linux-gnu/bits/types.h"
	.file 5 "/usr/include/x86_64-linux-gnu/bits/types/struct_FILE.h"
	.file 6 "/usr/include/x86_64-linux-gnu/bits/types/FILE.h"
	.file 7 "/usr/include/stdio.h"
	.file 8 "/usr/include/x86_64-linux-gnu/bits/sys_errlist.h"
	.file 9 "/usr/include/x86_64-linux-gnu/bits/thread-shared-types.h"
	.file 10 "/usr/include/x86_64-linux-gnu/bits/struct_mutex.h"
	.file 11 "/usr/include/x86_64-linux-gnu/bits/pthreadtypes.h"
	.file 12 "/usr/include/unistd.h"
	.file 13 "/usr/include/x86_64-linux-gnu/bits/getopt_core.h"
	.file 14 "/usr/include/time.h"
	.file 15 "/usr/include/pthread.h"
	.file 16 "/usr/include/errno.h"
	.file 17 "/usr/include/stdlib.h"
	.file 18 "<built-in>"
	.section	.note.GNU-stack,"",@progbits
	.section	.note.gnu.property,"a"
	.align 8
	.long	 1f - 0f
	.long	 4f - 1f
	.long	 5
0:
	.string	 "GNU"
1:
	.align 8
	.long	 0xc0000002
	.long	 3f - 2f
2:
	.long	 0x3
3:
	.align 8
4:
